target datalayout = "e-m:e-p270:32:32-p271:32:32-p272:64:64-i64:64-i128:128-f80:128-n8:16:32:64-S128"
target triple = "x86_64-pc-linux-gnu"

%"class.cv::Vec.32" = type { %"class.cv::Matx.33" }
%"class.cv::Matx.33" = type { [3 x float] }
%"struct.cv::EstimatedCircle" = type { %"class.cv::Vec.32", i32 }

; Function Attrs: mustprogress nounwind uwtable
define linkonce_odr hidden noundef nonnull align 4 dereferenceable(4) ptr @_ZNK2cv3VecIfLi3EEixEi(ptr noundef nonnull align 4 dereferenceable(12) %0, i32 noundef %1) #4 comdat align 2 {
  %3 = alloca ptr, align 8
  %4 = alloca i32, align 4
  store ptr %0, ptr %3, align 8
  store i32 %1, ptr %4, align 4
  %5 = load ptr, ptr %3, align 8
  %6 = getelementptr inbounds %"class.cv::Matx.33", ptr %5, i32 0, i32 0
  %7 = load i32, ptr %4, align 4
  %8 = sext i32 %7 to i64
  %9 = getelementptr inbounds [3 x float], ptr %6, i64 0, i64 %8
  ret ptr %9
}

; Function Attrs: mustprogress nounwind uwtable
define internal noundef zeroext i1 @_ZN2cvL8cmpAccumERKNS_15EstimatedCircleES2_(ptr noundef nonnull align 4 dereferenceable(16) %0, ptr noundef nonnull align 4 dereferenceable(16) %1) #4 {
  %3 = alloca i1, align 1
  %4 = alloca ptr, align 8
  %5 = alloca ptr, align 8
  store ptr %0, ptr %4, align 8
  store ptr %1, ptr %5, align 8
  %6 = load ptr, ptr %4, align 8
  %7 = getelementptr inbounds %"struct.cv::EstimatedCircle", ptr %6, i32 0, i32 1
  %8 = load i32, ptr %7, align 4
  %9 = load ptr, ptr %5, align 8
  %10 = getelementptr inbounds %"struct.cv::EstimatedCircle", ptr %9, i32 0, i32 1
  %11 = load i32, ptr %10, align 4
  %12 = icmp sgt i32 %8, %11
  br i1 %12, label %13, label %14

13:                                               ; preds = %2
  store i1 true, ptr %3, align 1
  br label %90

14:                                               ; preds = %2
  %15 = load ptr, ptr %4, align 8
  %16 = getelementptr inbounds %"struct.cv::EstimatedCircle", ptr %15, i32 0, i32 1
  %17 = load i32, ptr %16, align 4
  %18 = load ptr, ptr %5, align 8
  %19 = getelementptr inbounds %"struct.cv::EstimatedCircle", ptr %18, i32 0, i32 1
  %20 = load i32, ptr %19, align 4
  %21 = icmp slt i32 %17, %20
  br i1 %21, label %22, label %23

22:                                               ; preds = %14
  store i1 false, ptr %3, align 1
  br label %90

23:                                               ; preds = %14
  %24 = load ptr, ptr %4, align 8
  %25 = getelementptr inbounds %"struct.cv::EstimatedCircle", ptr %24, i32 0, i32 0
  %26 = call noundef nonnull align 4 dereferenceable(4) ptr @_ZNK2cv3VecIfLi3EEixEi(ptr noundef nonnull align 4 dereferenceable(12) %25, i32 noundef 2)
  %27 = load float, ptr %26, align 4
  %28 = load ptr, ptr %5, align 8
  %29 = getelementptr inbounds %"struct.cv::EstimatedCircle", ptr %28, i32 0, i32 0
  %30 = call noundef nonnull align 4 dereferenceable(4) ptr @_ZNK2cv3VecIfLi3EEixEi(ptr noundef nonnull align 4 dereferenceable(12) %29, i32 noundef 2)
  %31 = load float, ptr %30, align 4
  %32 = fcmp ogt float %27, %31
  br i1 %32, label %33, label %34

33:                                               ; preds = %23
  store i1 true, ptr %3, align 1
  br label %90

34:                                               ; preds = %23
  %35 = load ptr, ptr %4, align 8
  %36 = getelementptr inbounds %"struct.cv::EstimatedCircle", ptr %35, i32 0, i32 0
  %37 = call noundef nonnull align 4 dereferenceable(4) ptr @_ZNK2cv3VecIfLi3EEixEi(ptr noundef nonnull align 4 dereferenceable(12) %36, i32 noundef 2)
  %38 = load float, ptr %37, align 4
  %39 = load ptr, ptr %5, align 8
  %40 = getelementptr inbounds %"struct.cv::EstimatedCircle", ptr %39, i32 0, i32 0
  %41 = call noundef nonnull align 4 dereferenceable(4) ptr @_ZNK2cv3VecIfLi3EEixEi(ptr noundef nonnull align 4 dereferenceable(12) %40, i32 noundef 2)
  %42 = load float, ptr %41, align 4
  %43 = fcmp olt float %38, %42
  br i1 %43, label %44, label %45

44:                                               ; preds = %34
  store i1 false, ptr %3, align 1
  br label %90

45:                                               ; preds = %34
  %46 = load ptr, ptr %4, align 8
  %47 = getelementptr inbounds %"struct.cv::EstimatedCircle", ptr %46, i32 0, i32 0
  %48 = call noundef nonnull align 4 dereferenceable(4) ptr @_ZNK2cv3VecIfLi3EEixEi(ptr noundef nonnull align 4 dereferenceable(12) %47, i32 noundef 0)
  %49 = load float, ptr %48, align 4
  %50 = load ptr, ptr %5, align 8
  %51 = getelementptr inbounds %"struct.cv::EstimatedCircle", ptr %50, i32 0, i32 0
  %52 = call noundef nonnull align 4 dereferenceable(4) ptr @_ZNK2cv3VecIfLi3EEixEi(ptr noundef nonnull align 4 dereferenceable(12) %51, i32 noundef 0)
  %53 = load float, ptr %52, align 4
  %54 = fcmp olt float %49, %53
  br i1 %54, label %55, label %56

55:                                               ; preds = %45
  store i1 true, ptr %3, align 1
  br label %90

56:                                               ; preds = %45
  %57 = load ptr, ptr %4, align 8
  %58 = getelementptr inbounds %"struct.cv::EstimatedCircle", ptr %57, i32 0, i32 0
  %59 = call noundef nonnull align 4 dereferenceable(4) ptr @_ZNK2cv3VecIfLi3EEixEi(ptr noundef nonnull align 4 dereferenceable(12) %58, i32 noundef 0)
  %60 = load float, ptr %59, align 4
  %61 = load ptr, ptr %5, align 8
  %62 = getelementptr inbounds %"struct.cv::EstimatedCircle", ptr %61, i32 0, i32 0
  %63 = call noundef nonnull align 4 dereferenceable(4) ptr @_ZNK2cv3VecIfLi3EEixEi(ptr noundef nonnull align 4 dereferenceable(12) %62, i32 noundef 0)
  %64 = load float, ptr %63, align 4
  %65 = fcmp ogt float %60, %64
  br i1 %65, label %66, label %67

66:                                               ; preds = %56
  store i1 false, ptr %3, align 1
  br label %90

67:                                               ; preds = %56
  %68 = load ptr, ptr %4, align 8
  %69 = getelementptr inbounds %"struct.cv::EstimatedCircle", ptr %68, i32 0, i32 0
  %70 = call noundef nonnull align 4 dereferenceable(4) ptr @_ZNK2cv3VecIfLi3EEixEi(ptr noundef nonnull align 4 dereferenceable(12) %69, i32 noundef 1)
  %71 = load float, ptr %70, align 4
  %72 = load ptr, ptr %5, align 8
  %73 = getelementptr inbounds %"struct.cv::EstimatedCircle", ptr %72, i32 0, i32 0
  %74 = call noundef nonnull align 4 dereferenceable(4) ptr @_ZNK2cv3VecIfLi3EEixEi(ptr noundef nonnull align 4 dereferenceable(12) %73, i32 noundef 1)
  %75 = load float, ptr %74, align 4
  %76 = fcmp olt float %71, %75
  br i1 %76, label %77, label %78

77:                                               ; preds = %67
  store i1 true, ptr %3, align 1
  br label %90

78:                                               ; preds = %67
  %79 = load ptr, ptr %4, align 8
  %80 = getelementptr inbounds %"struct.cv::EstimatedCircle", ptr %79, i32 0, i32 0
  %81 = call noundef nonnull align 4 dereferenceable(4) ptr @_ZNK2cv3VecIfLi3EEixEi(ptr noundef nonnull align 4 dereferenceable(12) %80, i32 noundef 1)
  %82 = load float, ptr %81, align 4
  %83 = load ptr, ptr %5, align 8
  %84 = getelementptr inbounds %"struct.cv::EstimatedCircle", ptr %83, i32 0, i32 0
  %85 = call noundef nonnull align 4 dereferenceable(4) ptr @_ZNK2cv3VecIfLi3EEixEi(ptr noundef nonnull align 4 dereferenceable(12) %84, i32 noundef 1)
  %86 = load float, ptr %85, align 4
  %87 = fcmp ogt float %82, %86
  br i1 %87, label %88, label %89

88:                                               ; preds = %78
  store i1 false, ptr %3, align 1
  br label %90

89:                                               ; preds = %78
  store i1 false, ptr %3, align 1
  br label %90

90:                                               ; preds = %89, %88, %77, %66, %55, %44, %33, %22, %13
  %91 = load i1, ptr %3, align 1
  ret i1 %91
}