; Function Attrs: mustprogress nofree norecurse nosync nounwind willreturn memory(argmem: read) uwtable
define internal noundef zeroext i1 @_ZN2cvL8cmpAccumERKNS_15EstimatedCircleES2_(ptr nocapture noundef nonnull readonly align 4 dereferenceable(16) %0, ptr nocapture noundef nonnull readonly align 4 dereferenceable(16) %1) #14 {
  %3 = getelementptr inbounds i8, ptr %0, i64 12
  %4 = load i32, ptr %3, align 4
  %5 = getelementptr inbounds i8, ptr %1, i64 12
  %6 = load i32, ptr %5, align 4
  %7 = icmp sgt i32 %4, %6
  br i1 %7, label %31, label %8

8:                                                ; preds = %2
  %9 = icmp slt i32 %4, %6
  br i1 %9, label %31, label %10

10:                                               ; preds = %8
  %11 = getelementptr inbounds i8, ptr %0, i64 8
  %12 = load float, ptr %11, align 4
  %13 = getelementptr inbounds i8, ptr %1, i64 8
  %14 = load float, ptr %13, align 4
  %15 = fcmp ogt float %12, %14
  br i1 %15, label %31, label %16

16:                                               ; preds = %10
  %17 = fcmp olt float %12, %14
  br i1 %17, label %31, label %18

18:                                               ; preds = %16
  %19 = load float, ptr %0, align 4
  %20 = load float, ptr %1, align 4
  %21 = fcmp olt float %19, %20
  br i1 %21, label %31, label %22

22:                                               ; preds = %18
  %23 = fcmp ogt float %19, %20
  br i1 %23, label %31, label %24

24:                                               ; preds = %22
  %25 = getelementptr inbounds i8, ptr %0, i64 4
  %26 = load float, ptr %25, align 4
  %27 = getelementptr inbounds i8, ptr %1, i64 4
  %28 = load float, ptr %27, align 4
  %29 = fcmp olt float %26, %28
  br i1 %29, label %31, label %30

30:                                               ; preds = %24
  br label %31

31:                                               ; preds = %30, %24, %22, %18, %16, %10, %8, %2
  %.0 = phi i1 [ true, %2 ], [ false, %8 ], [ true, %10 ], [ false, %16 ], [ true, %18 ], [ false, %22 ], [ true, %24 ], [ false, %30 ]
  ret i1 %.0
}